target datalayout = "e-m:e-p270:32:32-p271:32:32-p272:64:64-i64:64-i128:128-f80:128-n8:16:32:64-S128"
target triple = "x86_64-pc-linux-gnu"

%struct.AVCIExy = type { %struct.AVRational, %struct.AVRational }
%struct.AVRational = type { i32, i32 }
%struct.Gamut = type { %struct.SwsMatrix3x3, %struct.SwsMatrix3x3, %struct.SwsMatrix3x3, %struct.SwsMatrix3x3, ptr, ptr, float, float, float, float, float, float, %struct.AVCIExy, %struct.ICh }
%struct.ICh = type { float, float, float }
%struct.SwsMatrix3x3 = type { [3 x [3 x float]] }
%struct.IPT = type { float, float, float }
%struct.RGB = type { float, float, float }

@ff_pq_eotf_lut = external constant [1025 x float], align 16

; Function Attrs: alwaysinline nounwind willreturn memory(none) uwtable
define internal float @av_clipf_c(float noundef %0, float noundef %1, float noundef %2) #10 {
  %4 = alloca float, align 4
  %5 = alloca float, align 4
  %6 = alloca float, align 4
  store float %0, ptr %4, align 4, !tbaa !57
  store float %1, ptr %5, align 4, !tbaa !57
  store float %2, ptr %6, align 4, !tbaa !57
  %7 = load float, ptr %4, align 4, !tbaa !57
  %8 = load float, ptr %5, align 4, !tbaa !57
  %9 = fcmp nsz ogt float %7, %8
  br i1 %9, label %10, label %12

10:                                               ; preds = %3
  %11 = load float, ptr %4, align 4, !tbaa !57
  br label %14

12:                                               ; preds = %3
  %13 = load float, ptr %5, align 4, !tbaa !57
  br label %14

14:                                               ; preds = %12, %10
  %15 = phi nsz float [ %11, %10 ], [ %13, %12 ]
  %16 = load float, ptr %6, align 4, !tbaa !57
  %17 = fcmp nsz ogt float %15, %16
  br i1 %17, label %18, label %20

18:                                               ; preds = %14
  %19 = load float, ptr %6, align 4, !tbaa !57
  br label %30

20:                                               ; preds = %14
  %21 = load float, ptr %4, align 4, !tbaa !57
  %22 = load float, ptr %5, align 4, !tbaa !57
  %23 = fcmp nsz ogt float %21, %22
  br i1 %23, label %24, label %26

24:                                               ; preds = %20
  %25 = load float, ptr %4, align 4, !tbaa !57
  br label %28

26:                                               ; preds = %20
  %27 = load float, ptr %5, align 4, !tbaa !57
  br label %28

28:                                               ; preds = %26, %24
  %29 = phi nsz float [ %25, %24 ], [ %27, %26 ]
  br label %30

30:                                               ; preds = %28, %18
  %31 = phi nsz float [ %19, %18 ], [ %29, %28 ]
  ret float %31
}

; Function Attrs: inlinehint nounwind uwtable
define internal float @pq_eotf(float noundef %0) #1 {
  %2 = alloca float, align 4
  %3 = alloca float, align 4
  %4 = alloca i32, align 4
  %5 = alloca float, align 4
  store float %0, ptr %2, align 4, !tbaa !57
  call void @llvm.lifetime.start.p0(i64 4, ptr %3) #13
  %6 = load float, ptr %2, align 4, !tbaa !57
  %7 = call nsz float @av_clipf_c(float noundef %6, float noundef 0.000000e+00, float noundef 1.000000e+00) #14
  %8 = fmul nsz float %7, 1.023000e+03
  store float %8, ptr %3, align 4, !tbaa !57
  call void @llvm.lifetime.start.p0(i64 4, ptr %4) #13
  %9 = load float, ptr %3, align 4, !tbaa !57
  %10 = call nsz float @llvm.floor.f32(float %9)
  %11 = fptosi float %10 to i32
  store i32 %11, ptr %4, align 4, !tbaa !28
  call void @llvm.lifetime.start.p0(i64 4, ptr %5) #13
  %12 = load float, ptr %3, align 4, !tbaa !57
  %13 = load i32, ptr %4, align 4, !tbaa !28
  %14 = sitofp i32 %13 to float
  %15 = fsub nsz float %12, %14
  store float %15, ptr %5, align 4, !tbaa !57
  %16 = load i32, ptr %4, align 4, !tbaa !28
  %17 = add nsw i32 %16, 1
  %18 = sext i32 %17 to i64
  %19 = getelementptr inbounds [1025 x float], ptr @ff_pq_eotf_lut, i64 0, i64 %18
  %20 = load float, ptr %19, align 4, !tbaa !57
  %21 = load float, ptr %5, align 4, !tbaa !57
  %22 = load i32, ptr %4, align 4, !tbaa !28
  %23 = sext i32 %22 to i64
  %24 = getelementptr inbounds [1025 x float], ptr @ff_pq_eotf_lut, i64 0, i64 %23
  %25 = load float, ptr %24, align 4, !tbaa !57
  %26 = load float, ptr %5, align 4, !tbaa !57
  %27 = fsub nsz float 1.000000e+00, %26
  %28 = fmul nsz float %25, %27
  %29 = call nsz float @llvm.fmuladd.f32(float %20, float %21, float %28)
  call void @llvm.lifetime.end.p0(i64 4, ptr %5) #13
  call void @llvm.lifetime.end.p0(i64 4, ptr %4) #13
  call void @llvm.lifetime.end.p0(i64 4, ptr %3) #13
  ret float %29
}

; Function Attrs: inlinehint nounwind uwtable
define internal zeroext i1 @ingamut(<2 x float> %0, float %1, ptr noundef byval(%struct.Gamut) align 8 %2) #11 {
  %4 = alloca i1, align 1
  %5 = alloca %struct.IPT, align 4
  %6 = alloca { <2 x float>, float }, align 4
  %7 = alloca float, align 4
  %8 = alloca float, align 4
  %9 = alloca float, align 4
  %10 = alloca float, align 4
  %11 = alloca float, align 4
  %12 = alloca i32, align 4
  %13 = alloca float, align 4
  %14 = alloca float, align 4
  %15 = alloca float, align 4
  %16 = alloca %struct.RGB, align 4
  %17 = getelementptr inbounds nuw { <2 x float>, float }, ptr %6, i32 0, i32 0
  store <2 x float> %0, ptr %17, align 4
  %18 = getelementptr inbounds nuw { <2 x float>, float }, ptr %6, i32 0, i32 1
  store float %1, ptr %18, align 4
  call void @llvm.memcpy.p0.p0.i64(ptr align 4 %5, ptr align 4 %6, i64 12, i1 false)
  call void @llvm.lifetime.start.p0(i64 4, ptr %7) #13
  %19 = getelementptr inbounds nuw %struct.Gamut, ptr %2, i32 0, i32 10
  %20 = load float, ptr %19, align 8, !tbaa !83
  %21 = fsub nsz float %20, 0x3F1A36E2E0000000
  store float %21, ptr %7, align 4, !tbaa !57
  call void @llvm.lifetime.start.p0(i64 4, ptr %8) #13
  %22 = getelementptr inbounds nuw %struct.Gamut, ptr %2, i32 0, i32 11
  %23 = load float, ptr %22, align 4, !tbaa !84
  %24 = fadd nsz float %23, 0x3F847AE140000000
  store float %24, ptr %8, align 4, !tbaa !57
  call void @llvm.lifetime.start.p0(i64 4, ptr %9) #13
  %25 = getelementptr inbounds nuw %struct.IPT, ptr %5, i32 0, i32 0
  %26 = load float, ptr %25, align 4, !tbaa !90
  %27 = getelementptr inbounds nuw %struct.IPT, ptr %5, i32 0, i32 1
  %28 = load float, ptr %27, align 4, !tbaa !92
  %29 = call nsz float @llvm.fmuladd.f32(float 0x3FB8FA4680000000, float %28, float %26)
  %30 = getelementptr inbounds nuw %struct.IPT, ptr %5, i32 0, i32 2
  %31 = load float, ptr %30, align 4, !tbaa !93
  %32 = call nsz float @llvm.fmuladd.f32(float 0x3FCA44D880000000, float %31, float %29)
  store float %32, ptr %9, align 4, !tbaa !57
  call void @llvm.lifetime.start.p0(i64 4, ptr %10) #13
  %33 = getelementptr inbounds nuw %struct.IPT, ptr %5, i32 0, i32 0
  %34 = load float, ptr %33, align 4, !tbaa !90
  %35 = getelementptr inbounds nuw %struct.IPT, ptr %5, i32 0, i32 1
  %36 = load float, ptr %35, align 4, !tbaa !92
  %37 = call nsz float @llvm.fmuladd.f32(float 0xBFBD26FA40000000, float %36, float %34)
  %38 = getelementptr inbounds nuw %struct.IPT, ptr %5, i32 0, i32 2
  %39 = load float, ptr %38, align 4, !tbaa !93
  %40 = call nsz float @llvm.fmuladd.f32(float 0x3FC10D4140000000, float %39, float %37)
  store float %40, ptr %10, align 4, !tbaa !57
  call void @llvm.lifetime.start.p0(i64 4, ptr %11) #13
  %41 = getelementptr inbounds nuw %struct.IPT, ptr %5, i32 0, i32 0
  %42 = load float, ptr %41, align 4, !tbaa !90
  %43 = getelementptr inbounds nuw %struct.IPT, ptr %5, i32 0, i32 1
  %44 = load float, ptr %43, align 4, !tbaa !92
  %45 = call nsz float @llvm.fmuladd.f32(float 0x3FA0B2ED20000000, float %44, float %42)
  %46 = getelementptr inbounds nuw %struct.IPT, ptr %5, i32 0, i32 2
  %47 = load float, ptr %46, align 4, !tbaa !93
  %48 = call nsz float @llvm.fmuladd.f32(float 0xBFE5A90EE0000000, float %47, float %45)
  store float %48, ptr %11, align 4, !tbaa !57
  %49 = load float, ptr %9, align 4, !tbaa !57
  %50 = getelementptr inbounds nuw %struct.Gamut, ptr %2, i32 0, i32 8
  %51 = load float, ptr %50, align 8, !tbaa !81
  %52 = fcmp nsz olt float %49, %51
  br i1 %52, label %78, label %53

53:                                               ; preds = %3
  %54 = load float, ptr %9, align 4, !tbaa !57
  %55 = getelementptr inbounds nuw %struct.Gamut, ptr %2, i32 0, i32 9
  %56 = load float, ptr %55, align 4, !tbaa !82
  %57 = fcmp nsz ogt float %54, %56
  br i1 %57, label %78, label %58

58:                                               ; preds = %53
  %59 = load float, ptr %10, align 4, !tbaa !57
  %60 = getelementptr inbounds nuw %struct.Gamut, ptr %2, i32 0, i32 8
  %61 = load float, ptr %60, align 8, !tbaa !81
  %62 = fcmp nsz olt float %59, %61
  br i1 %62, label %78, label %63

63:                                               ; preds = %58
  %64 = load float, ptr %10, align 4, !tbaa !57
  %65 = getelementptr inbounds nuw %struct.Gamut, ptr %2, i32 0, i32 9
  %66 = load float, ptr %65, align 4, !tbaa !82
  %67 = fcmp nsz ogt float %64, %66
  br i1 %67, label %78, label %68

68:                                               ; preds = %63
  %69 = load float, ptr %11, align 4, !tbaa !57
  %70 = getelementptr inbounds nuw %struct.Gamut, ptr %2, i32 0, i32 8
  %71 = load float, ptr %70, align 8, !tbaa !81
  %72 = fcmp nsz olt float %69, %71
  br i1 %72, label %78, label %73

73:                                               ; preds = %68
  %74 = load float, ptr %11, align 4, !tbaa !57
  %75 = getelementptr inbounds nuw %struct.Gamut, ptr %2, i32 0, i32 9
  %76 = load float, ptr %75, align 4, !tbaa !82
  %77 = fcmp nsz ogt float %74, %76
  br i1 %77, label %78, label %79

78:                                               ; preds = %73, %68, %63, %58, %53, %3
  store i1 false, ptr %4, align 1
  store i32 1, ptr %12, align 4
  br label %183

79:                                               ; preds = %73
  call void @llvm.lifetime.start.p0(i64 4, ptr %13) #13
  %80 = load float, ptr %9, align 4, !tbaa !57
  %81 = call nsz float @pq_eotf(float noundef %80)
  store float %81, ptr %13, align 4, !tbaa !57
  call void @llvm.lifetime.start.p0(i64 4, ptr %14) #13
  %82 = load float, ptr %10, align 4, !tbaa !57
  %83 = call nsz float @pq_eotf(float noundef %82)
  store float %83, ptr %14, align 4, !tbaa !57
  call void @llvm.lifetime.start.p0(i64 4, ptr %15) #13
  %84 = load float, ptr %11, align 4, !tbaa !57
  %85 = call nsz float @pq_eotf(float noundef %84)
  store float %85, ptr %15, align 4, !tbaa !57
  call void @llvm.lifetime.start.p0(i64 12, ptr %16) #13
  %86 = getelementptr inbounds nuw %struct.RGB, ptr %16, i32 0, i32 0
  %87 = getelementptr inbounds nuw %struct.Gamut, ptr %2, i32 0, i32 2
  %88 = getelementptr inbounds nuw %struct.SwsMatrix3x3, ptr %87, i32 0, i32 0
  %89 = getelementptr inbounds [3 x [3 x float]], ptr %88, i64 0, i64 0
  %90 = getelementptr inbounds [3 x float], ptr %89, i64 0, i64 0
  %91 = load float, ptr %90, align 8, !tbaa !57
  %92 = load float, ptr %13, align 4, !tbaa !57
  %93 = getelementptr inbounds nuw %struct.Gamut, ptr %2, i32 0, i32 2
  %94 = getelementptr inbounds nuw %struct.SwsMatrix3x3, ptr %93, i32 0, i32 0
  %95 = getelementptr inbounds [3 x [3 x float]], ptr %94, i64 0, i64 0
  %96 = getelementptr inbounds [3 x float], ptr %95, i64 0, i64 1
  %97 = load float, ptr %96, align 4, !tbaa !57
  %98 = load float, ptr %14, align 4, !tbaa !57
  %99 = fmul nsz float %97, %98
  %100 = call nsz float @llvm.fmuladd.f32(float %91, float %92, float %99)
  %101 = getelementptr inbounds nuw %struct.Gamut, ptr %2, i32 0, i32 2
  %102 = getelementptr inbounds nuw %struct.SwsMatrix3x3, ptr %101, i32 0, i32 0
  %103 = getelementptr inbounds [3 x [3 x float]], ptr %102, i64 0, i64 0
  %104 = getelementptr inbounds [3 x float], ptr %103, i64 0, i64 2
  %105 = load float, ptr %104, align 8, !tbaa !57
  %106 = load float, ptr %15, align 4, !tbaa !57
  %107 = call nsz float @llvm.fmuladd.f32(float %105, float %106, float %100)
  store float %107, ptr %86, align 4, !tbaa !95
  %108 = getelementptr inbounds nuw %struct.RGB, ptr %16, i32 0, i32 1
  %109 = getelementptr inbounds nuw %struct.Gamut, ptr %2, i32 0, i32 2
  %110 = getelementptr inbounds nuw %struct.SwsMatrix3x3, ptr %109, i32 0, i32 0
  %111 = getelementptr inbounds [3 x [3 x float]], ptr %110, i64 0, i64 1
  %112 = getelementptr inbounds [3 x float], ptr %111, i64 0, i64 0
  %113 = load float, ptr %112, align 4, !tbaa !57
  %114 = load float, ptr %13, align 4, !tbaa !57
  %115 = getelementptr inbounds nuw %struct.Gamut, ptr %2, i32 0, i32 2
  %116 = getelementptr inbounds nuw %struct.SwsMatrix3x3, ptr %115, i32 0, i32 0
  %117 = getelementptr inbounds [3 x [3 x float]], ptr %116, i64 0, i64 1
  %118 = getelementptr inbounds [3 x float], ptr %117, i64 0, i64 1
  %119 = load float, ptr %118, align 4, !tbaa !57
  %120 = load float, ptr %14, align 4, !tbaa !57
  %121 = fmul nsz float %119, %120
  %122 = call nsz float @llvm.fmuladd.f32(float %113, float %114, float %121)
  %123 = getelementptr inbounds nuw %struct.Gamut, ptr %2, i32 0, i32 2
  %124 = getelementptr inbounds nuw %struct.SwsMatrix3x3, ptr %123, i32 0, i32 0
  %125 = getelementptr inbounds [3 x [3 x float]], ptr %124, i64 0, i64 1
  %126 = getelementptr inbounds [3 x float], ptr %125, i64 0, i64 2
  %127 = load float, ptr %126, align 4, !tbaa !57
  %128 = load float, ptr %15, align 4, !tbaa !57
  %129 = call nsz float @llvm.fmuladd.f32(float %127, float %128, float %122)
  store float %129, ptr %108, align 4, !tbaa !97
  %130 = getelementptr inbounds nuw %struct.RGB, ptr %16, i32 0, i32 2
  %131 = getelementptr inbounds nuw %struct.Gamut, ptr %2, i32 0, i32 2
  %132 = getelementptr inbounds nuw %struct.SwsMatrix3x3, ptr %131, i32 0, i32 0
  %133 = getelementptr inbounds [3 x [3 x float]], ptr %132, i64 0, i64 2
  %134 = getelementptr inbounds [3 x float], ptr %133, i64 0, i64 0
  %135 = load float, ptr %134, align 8, !tbaa !57
  %136 = load float, ptr %13, align 4, !tbaa !57
  %137 = getelementptr inbounds nuw %struct.Gamut, ptr %2, i32 0, i32 2
  %138 = getelementptr inbounds nuw %struct.SwsMatrix3x3, ptr %137, i32 0, i32 0
  %139 = getelementptr inbounds [3 x [3 x float]], ptr %138, i64 0, i64 2
  %140 = getelementptr inbounds [3 x float], ptr %139, i64 0, i64 1
  %141 = load float, ptr %140, align 4, !tbaa !57
  %142 = load float, ptr %14, align 4, !tbaa !57
  %143 = fmul nsz float %141, %142
  %144 = call nsz float @llvm.fmuladd.f32(float %135, float %136, float %143)
  %145 = getelementptr inbounds nuw %struct.Gamut, ptr %2, i32 0, i32 2
  %146 = getelementptr inbounds nuw %struct.SwsMatrix3x3, ptr %145, i32 0, i32 0
  %147 = getelementptr inbounds [3 x [3 x float]], ptr %146, i64 0, i64 2
  %148 = getelementptr inbounds [3 x float], ptr %147, i64 0, i64 2
  %149 = load float, ptr %148, align 8, !tbaa !57
  %150 = load float, ptr %15, align 4, !tbaa !57
  %151 = call nsz float @llvm.fmuladd.f32(float %149, float %150, float %144)
  store float %151, ptr %130, align 4, !tbaa !98
  %152 = getelementptr inbounds nuw %struct.RGB, ptr %16, i32 0, i32 0
  %153 = load float, ptr %152, align 4, !tbaa !95
  %154 = load float, ptr %7, align 4, !tbaa !57
  %155 = fcmp nsz oge float %153, %154
  br i1 %155, label %156, label %181

156:                                              ; preds = %79
  %157 = getelementptr inbounds nuw %struct.RGB, ptr %16, i32 0, i32 0
  %158 = load float, ptr %157, align 4, !tbaa !95
  %159 = load float, ptr %8, align 4, !tbaa !57
  %160 = fcmp nsz ole float %158, %159
  br i1 %160, label %161, label %181

161:                                              ; preds = %156
  %162 = getelementptr inbounds nuw %struct.RGB, ptr %16, i32 0, i32 1
  %163 = load float, ptr %162, align 4, !tbaa !97
  %164 = load float, ptr %7, align 4, !tbaa !57
  %165 = fcmp nsz oge float %163, %164
  br i1 %165, label %166, label %181

166:                                              ; preds = %161
  %167 = getelementptr inbounds nuw %struct.RGB, ptr %16, i32 0, i32 1
  %168 = load float, ptr %167, align 4, !tbaa !97
  %169 = load float, ptr %8, align 4, !tbaa !57
  %170 = fcmp nsz ole float %168, %169
  br i1 %170, label %171, label %181

171:                                              ; preds = %166
  %172 = getelementptr inbounds nuw %struct.RGB, ptr %16, i32 0, i32 2
  %173 = load float, ptr %172, align 4, !tbaa !98
  %174 = load float, ptr %7, align 4, !tbaa !57
  %175 = fcmp nsz oge float %173, %174
  br i1 %175, label %176, label %181

176:                                              ; preds = %171
  %177 = getelementptr inbounds nuw %struct.RGB, ptr %16, i32 0, i32 2
  %178 = load float, ptr %177, align 4, !tbaa !98
  %179 = load float, ptr %8, align 4, !tbaa !57
  %180 = fcmp nsz ole float %178, %179
  br label %181

181:                                              ; preds = %176, %171, %166, %161, %156, %79
  %182 = phi i1 [ false, %171 ], [ false, %166 ], [ false, %161 ], [ false, %156 ], [ false, %79 ], [ %180, %176 ]
  store i1 %182, ptr %4, align 1
  store i32 1, ptr %12, align 4
  call void @llvm.lifetime.end.p0(i64 12, ptr %16) #13
  call void @llvm.lifetime.end.p0(i64 4, ptr %15) #13
  call void @llvm.lifetime.end.p0(i64 4, ptr %14) #13
  call void @llvm.lifetime.end.p0(i64 4, ptr %13) #13
  br label %183

183:                                              ; preds = %181, %78
  call void @llvm.lifetime.end.p0(i64 4, ptr %11) #13
  call void @llvm.lifetime.end.p0(i64 4, ptr %10) #13
  call void @llvm.lifetime.end.p0(i64 4, ptr %9) #13
  call void @llvm.lifetime.end.p0(i64 4, ptr %8) #13
  call void @llvm.lifetime.end.p0(i64 4, ptr %7) #13
  %184 = load i1, ptr %4, align 1
  ret i1 %184
}