; Function Attrs: inlinehint mustprogress nofree norecurse nosync nounwind willreturn memory(argmem: read) uwtable
define internal fastcc zeroext i1 @ingamut(<2 x float> %0, float %1, ptr noundef readonly byval(%struct.Gamut) align 8 captures(none) %2) unnamed_addr #11 {
  %4 = getelementptr inbounds nuw i8, ptr %2, i64 176
  %5 = load float, ptr %4, align 8, !tbaa !62
  %6 = fadd nsz float %5, 0xBF1A36E2E0000000
  %7 = getelementptr inbounds nuw i8, ptr %2, i64 180
  %8 = load float, ptr %7, align 4, !tbaa !63
  %9 = fadd nsz float %8, 0x3F847AE140000000
  %.sroa.028.0.vec.extract = extractelement <2 x float> %0, i64 0
  %.sroa.028.4.vec.extract = extractelement <2 x float> %0, i64 1
  %10 = tail call nsz float @llvm.fmuladd.f32(float %.sroa.028.4.vec.extract, float 0x3FB8FA4680000000, float %.sroa.028.0.vec.extract)
  %11 = tail call nsz float @llvm.fmuladd.f32(float %1, float 0x3FCA44D880000000, float %10)
  %12 = tail call nsz float @llvm.fmuladd.f32(float %.sroa.028.4.vec.extract, float 0xBFBD26FA40000000, float %.sroa.028.0.vec.extract)
  %13 = tail call nsz float @llvm.fmuladd.f32(float %1, float 0x3FC10D4140000000, float %12)
  %14 = tail call nsz float @llvm.fmuladd.f32(float %.sroa.028.4.vec.extract, float 0x3FA0B2ED20000000, float %.sroa.028.0.vec.extract)
  %15 = tail call nsz float @llvm.fmuladd.f32(float %1, float 0xBFE5A90EE0000000, float %14)
  %16 = getelementptr inbounds nuw i8, ptr %2, i64 168
  %17 = load float, ptr %16, align 8, !tbaa !60
  %18 = fcmp nsz olt float %11, %17
  br i1 %18, label %117, label %19

19:                                               ; preds = %3
  %20 = getelementptr inbounds nuw i8, ptr %2, i64 172
  %21 = load float, ptr %20, align 4, !tbaa !61
  %22 = fcmp nsz ogt float %11, %21
  %23 = fcmp nsz olt float %13, %17
  %24 = fcmp nsz ogt float %13, %21
  %25 = or i1 %23, %24
  %or.cond50 = select i1 %22, i1 true, i1 %25
  %26 = fcmp nsz olt float %15, %17
  %27 = fcmp nsz ogt float %15, %21
  %28 = or i1 %26, %27
  %or.cond52 = select i1 %or.cond50, i1 true, i1 %28
  br i1 %or.cond52, label %117, label %29

29:                                               ; preds = %19
  %30 = fcmp nsz ogt float %11, 0.000000e+00
  %31 = select nsz i1 %30, float %11, float 0.000000e+00
  %32 = fcmp nsz ogt float %31, 1.000000e+00
  %..i.i = select nsz i1 %32, float 1.000000e+00, float %31
  %33 = fmul nsz float %..i.i, 1.023000e+03
  %34 = tail call nsz float @llvm.floor.f32(float %33)
  %35 = fptosi float %34 to i32
  %36 = sitofp i32 %35 to float
  %37 = fsub nsz float %33, %36
  %38 = add nsw i32 %35, 1
  %39 = sext i32 %38 to i64
  %40 = getelementptr inbounds [1025 x float], ptr @ff_pq_eotf_lut, i64 0, i64 %39
  %41 = load float, ptr %40, align 4, !tbaa !38
  %42 = sext i32 %35 to i64
  %43 = getelementptr inbounds [1025 x float], ptr @ff_pq_eotf_lut, i64 0, i64 %42
  %44 = load float, ptr %43, align 4, !tbaa !38
  %45 = fsub nsz float 1.000000e+00, %37
  %46 = fmul nsz float %45, %44
  %47 = tail call nsz float @llvm.fmuladd.f32(float %41, float %37, float %46)
  %48 = fcmp nsz ogt float %13, 0.000000e+00
  %49 = select nsz i1 %48, float %13, float 0.000000e+00
  %50 = fcmp nsz ogt float %49, 1.000000e+00
  %..i.i57 = select nsz i1 %50, float 1.000000e+00, float %49
  %51 = fmul nsz float %..i.i57, 1.023000e+03
  %52 = tail call nsz float @llvm.floor.f32(float %51)
  %53 = fptosi float %52 to i32
  %54 = sitofp i32 %53 to float
  %55 = fsub nsz float %51, %54
  %56 = add nsw i32 %53, 1
  %57 = sext i32 %56 to i64
  %58 = getelementptr inbounds [1025 x float], ptr @ff_pq_eotf_lut, i64 0, i64 %57
  %59 = load float, ptr %58, align 4, !tbaa !38
  %60 = sext i32 %53 to i64
  %61 = getelementptr inbounds [1025 x float], ptr @ff_pq_eotf_lut, i64 0, i64 %60
  %62 = load float, ptr %61, align 4, !tbaa !38
  %63 = fsub nsz float 1.000000e+00, %55
  %64 = fmul nsz float %63, %62
  %65 = tail call nsz float @llvm.fmuladd.f32(float %59, float %55, float %64)
  %66 = fcmp nsz ogt float %15, 0.000000e+00
  %67 = select nsz i1 %66, float %15, float 0.000000e+00
  %68 = fcmp nsz ogt float %67, 1.000000e+00
  %..i.i58 = select nsz i1 %68, float 1.000000e+00, float %67
  %69 = fmul nsz float %..i.i58, 1.023000e+03
  %70 = tail call nsz float @llvm.floor.f32(float %69)
  %71 = fptosi float %70 to i32
  %72 = sitofp i32 %71 to float
  %73 = fsub nsz float %69, %72
  %74 = add nsw i32 %71, 1
  %75 = sext i32 %74 to i64
  %76 = getelementptr inbounds [1025 x float], ptr @ff_pq_eotf_lut, i64 0, i64 %75
  %77 = load float, ptr %76, align 4, !tbaa !38
  %78 = sext i32 %71 to i64
  %79 = getelementptr inbounds [1025 x float], ptr @ff_pq_eotf_lut, i64 0, i64 %78
  %80 = load float, ptr %79, align 4, !tbaa !38
  %81 = fsub nsz float 1.000000e+00, %73
  %82 = fmul nsz float %81, %80
  %83 = tail call nsz float @llvm.fmuladd.f32(float %77, float %73, float %82)
  %84 = getelementptr inbounds nuw i8, ptr %2, i64 72
  %85 = load float, ptr %84, align 8, !tbaa !38
  %86 = getelementptr inbounds nuw i8, ptr %2, i64 76
  %87 = load float, ptr %86, align 4, !tbaa !38
  %88 = fmul nsz float %65, %87
  %89 = tail call nsz float @llvm.fmuladd.f32(float %85, float %47, float %88)
  %90 = getelementptr inbounds nuw i8, ptr %2, i64 80
  %91 = load float, ptr %90, align 8, !tbaa !38
  %92 = tail call nsz float @llvm.fmuladd.f32(float %91, float %83, float %89)
  %93 = getelementptr inbounds nuw i8, ptr %2, i64 84
  %94 = load float, ptr %93, align 4, !tbaa !38
  %95 = getelementptr inbounds nuw i8, ptr %2, i64 88
  %96 = load float, ptr %95, align 8, !tbaa !38
  %97 = fmul nsz float %65, %96
  %98 = tail call nsz float @llvm.fmuladd.f32(float %94, float %47, float %97)
  %99 = getelementptr inbounds nuw i8, ptr %2, i64 92
  %100 = load float, ptr %99, align 4, !tbaa !38
  %101 = tail call nsz float @llvm.fmuladd.f32(float %100, float %83, float %98)
  %102 = getelementptr inbounds nuw i8, ptr %2, i64 96
  %103 = load float, ptr %102, align 8, !tbaa !38
  %104 = getelementptr inbounds nuw i8, ptr %2, i64 100
  %105 = load float, ptr %104, align 4, !tbaa !38
  %106 = fmul nsz float %65, %105
  %107 = tail call nsz float @llvm.fmuladd.f32(float %103, float %47, float %106)
  %108 = getelementptr inbounds nuw i8, ptr %2, i64 104
  %109 = load float, ptr %108, align 8, !tbaa !38
  %110 = tail call nsz float @llvm.fmuladd.f32(float %109, float %83, float %107)
  %111 = fcmp nsz oge float %92, %6
  %112 = fcmp nsz ole float %92, %9
  %or.cond53.not65 = select i1 %111, i1 %112, i1 false
  %113 = fcmp nsz oge float %101, %6
  %or.cond54.not62 = select i1 %or.cond53.not65, i1 %113, i1 false
  %114 = fcmp nsz ole float %101, %9
  %or.cond55.not60 = select i1 %or.cond54.not62, i1 %114, i1 false
  %115 = fcmp nsz oge float %110, %6
  %or.cond56.not = select i1 %or.cond55.not60, i1 %115, i1 false
  %116 = fcmp nsz ole float %110, %9
  %spec.select = select i1 %or.cond56.not, i1 %116, i1 false
  br label %117

117:                                              ; preds = %29, %3, %19
  %.0 = phi i1 [ false, %19 ], [ false, %3 ], [ %spec.select, %29 ]
  ret i1 %.0
}